; ModuleID = '9/584.c'
source_filename = "9/584.c"
target datalayout = "e-m:e-p270:32:32-p271:32:32-p272:64:64-i64:64-f80:128-n8:16:32:64-S128"
target triple = "x86_64-pc-linux-gnu"

@.str = private unnamed_addr constant [3 x i8] c"%d\00", align 1
@.str.1 = private unnamed_addr constant [6 x i8] c"%s %d\00", align 1
@.str.2 = private unnamed_addr constant [4 x i8] c"%s\0A\00", align 1

; Function Attrs: noinline nounwind uwtable
define dso_local i32 @main() #0 {
  %1 = alloca i32, align 4
  %2 = alloca i32, align 4
  %3 = alloca i32, align 4
  %4 = alloca i32, align 4
  %5 = alloca i32, align 4
  %6 = alloca i32, align 4
  %7 = alloca i32, align 4
  %8 = alloca i32, align 4
  %9 = alloca [100 x [100 x i8]], align 16
  %10 = alloca [100 x i8], align 16
  %11 = alloca [100 x i8], align 16
  %12 = alloca [100 x [100 x i8]], align 16
  %13 = alloca [100 x i8], align 16
  %14 = alloca [100 x [100 x i8]], align 16
  %15 = alloca [100 x i8], align 16
  store i32 0, i32* %1, align 4
  %16 = call i32 (i8*, ...) @__isoc99_scanf(i8* getelementptr inbounds ([3 x i8], [3 x i8]* @.str, i64 0, i64 0), i32* %2)
  store i32 0, i32* %3, align 4
  br label %17

17:                                               ; preds = %30, %0
  %18 = load i32, i32* %3, align 4
  %19 = load i32, i32* %2, align 4
  %20 = icmp slt i32 %18, %19
  br i1 %20, label %21, label %33

21:                                               ; preds = %17
  %22 = load i32, i32* %3, align 4
  %23 = sext i32 %22 to i64
  %24 = getelementptr inbounds [100 x [100 x i8]], [100 x [100 x i8]]* %9, i64 0, i64 %23
  %25 = getelementptr inbounds [100 x i8], [100 x i8]* %24, i64 0, i64 0
  %26 = load i32, i32* %3, align 4
  %27 = sext i32 %26 to i64
  %28 = getelementptr inbounds [100 x i8], [100 x i8]* %10, i64 0, i64 %27
  %29 = call i32 (i8*, ...) @__isoc99_scanf(i8* getelementptr inbounds ([6 x i8], [6 x i8]* @.str.1, i64 0, i64 0), i8* %25, i8* %28)
  br label %30

30:                                               ; preds = %21
  %31 = load i32, i32* %3, align 4
  %32 = add nsw i32 %31, 1
  store i32 %32, i32* %3, align 4
  br label %17

33:                                               ; preds = %17
  store i32 0, i32* %8, align 4
  store i32 0, i32* %3, align 4
  br label %34

34:                                               ; preds = %65, %33
  %35 = load i32, i32* %3, align 4
  %36 = load i32, i32* %2, align 4
  %37 = icmp slt i32 %35, %36
  br i1 %37, label %38, label %68

38:                                               ; preds = %34
  %39 = load i32, i32* %3, align 4
  %40 = sext i32 %39 to i64
  %41 = getelementptr inbounds [100 x i8], [100 x i8]* %10, i64 0, i64 %40
  %42 = load i8, i8* %41, align 1
  %43 = sext i8 %42 to i32
  %44 = icmp sge i32 %43, 60
  br i1 %44, label %45, label %64

45:                                               ; preds = %38
  %46 = load i32, i32* %3, align 4
  %47 = sext i32 %46 to i64
  %48 = getelementptr inbounds [100 x i8], [100 x i8]* %10, i64 0, i64 %47
  %49 = load i8, i8* %48, align 1
  %50 = load i32, i32* %8, align 4
  %51 = sext i32 %50 to i64
  %52 = getelementptr inbounds [100 x i8], [100 x i8]* %11, i64 0, i64 %51
  store i8 %49, i8* %52, align 1
  %53 = load i32, i32* %8, align 4
  %54 = sext i32 %53 to i64
  %55 = getelementptr inbounds [100 x [100 x i8]], [100 x [100 x i8]]* %12, i64 0, i64 %54
  %56 = getelementptr inbounds [100 x i8], [100 x i8]* %55, i64 0, i64 0
  %57 = load i32, i32* %3, align 4
  %58 = sext i32 %57 to i64
  %59 = getelementptr inbounds [100 x [100 x i8]], [100 x [100 x i8]]* %9, i64 0, i64 %58
  %60 = getelementptr inbounds [100 x i8], [100 x i8]* %59, i64 0, i64 0
  %61 = call i8* @strcpy(i8* %56, i8* %60) #3
  %62 = load i32, i32* %8, align 4
  %63 = add nsw i32 %62, 1
  store i32 %63, i32* %8, align 4
  br label %64

64:                                               ; preds = %45, %38
  br label %65

65:                                               ; preds = %64
  %66 = load i32, i32* %3, align 4
  %67 = add nsw i32 %66, 1
  store i32 %67, i32* %3, align 4
  br label %34

68:                                               ; preds = %34
  store i32 0, i32* %3, align 4
  br label %69

69:                                               ; preds = %143, %68
  %70 = load i32, i32* %3, align 4
  %71 = load i32, i32* %8, align 4
  %72 = sub nsw i32 %71, 1
  %73 = icmp slt i32 %70, %72
  br i1 %73, label %74, label %146

74:                                               ; preds = %69
  store i32 0, i32* %4, align 4
  br label %75

75:                                               ; preds = %139, %74
  %76 = load i32, i32* %4, align 4
  %77 = load i32, i32* %8, align 4
  %78 = sub nsw i32 %77, 1
  %79 = load i32, i32* %3, align 4
  %80 = sub nsw i32 %78, %79
  %81 = icmp slt i32 %76, %80
  br i1 %81, label %82, label %142

82:                                               ; preds = %75
  %83 = load i32, i32* %4, align 4
  %84 = sext i32 %83 to i64
  %85 = getelementptr inbounds [100 x i8], [100 x i8]* %11, i64 0, i64 %84
  %86 = load i8, i8* %85, align 1
  %87 = sext i8 %86 to i32
  %88 = load i32, i32* %4, align 4
  %89 = add nsw i32 %88, 1
  %90 = sext i32 %89 to i64
  %91 = getelementptr inbounds [100 x i8], [100 x i8]* %11, i64 0, i64 %90
  %92 = load i8, i8* %91, align 1
  %93 = sext i8 %92 to i32
  %94 = icmp slt i32 %87, %93
  br i1 %94, label %95, label %138

95:                                               ; preds = %82
  %96 = load i32, i32* %4, align 4
  %97 = sext i32 %96 to i64
  %98 = getelementptr inbounds [100 x i8], [100 x i8]* %11, i64 0, i64 %97
  %99 = load i8, i8* %98, align 1
  %100 = sext i8 %99 to i32
  store i32 %100, i32* %5, align 4
  %101 = load i32, i32* %4, align 4
  %102 = add nsw i32 %101, 1
  %103 = sext i32 %102 to i64
  %104 = getelementptr inbounds [100 x i8], [100 x i8]* %11, i64 0, i64 %103
  %105 = load i8, i8* %104, align 1
  %106 = load i32, i32* %4, align 4
  %107 = sext i32 %106 to i64
  %108 = getelementptr inbounds [100 x i8], [100 x i8]* %11, i64 0, i64 %107
  store i8 %105, i8* %108, align 1
  %109 = load i32, i32* %5, align 4
  %110 = trunc i32 %109 to i8
  %111 = load i32, i32* %4, align 4
  %112 = add nsw i32 %111, 1
  %113 = sext i32 %112 to i64
  %114 = getelementptr inbounds [100 x i8], [100 x i8]* %11, i64 0, i64 %113
  store i8 %110, i8* %114, align 1
  %115 = getelementptr inbounds [100 x i8], [100 x i8]* %15, i64 0, i64 0
  %116 = load i32, i32* %4, align 4
  %117 = sext i32 %116 to i64
  %118 = getelementptr inbounds [100 x [100 x i8]], [100 x [100 x i8]]* %12, i64 0, i64 %117
  %119 = getelementptr inbounds [100 x i8], [100 x i8]* %118, i64 0, i64 0
  %120 = call i8* @strcpy(i8* %115, i8* %119) #3
  %121 = load i32, i32* %4, align 4
  %122 = sext i32 %121 to i64
  %123 = getelementptr inbounds [100 x [100 x i8]], [100 x [100 x i8]]* %12, i64 0, i64 %122
  %124 = getelementptr inbounds [100 x i8], [100 x i8]* %123, i64 0, i64 0
  %125 = load i32, i32* %4, align 4
  %126 = add nsw i32 %125, 1
  %127 = sext i32 %126 to i64
  %128 = getelementptr inbounds [100 x [100 x i8]], [100 x [100 x i8]]* %12, i64 0, i64 %127
  %129 = getelementptr inbounds [100 x i8], [100 x i8]* %128, i64 0, i64 0
  %130 = call i8* @strcpy(i8* %124, i8* %129) #3
  %131 = load i32, i32* %4, align 4
  %132 = add nsw i32 %131, 1
  %133 = sext i32 %132 to i64
  %134 = getelementptr inbounds [100 x [100 x i8]], [100 x [100 x i8]]* %12, i64 0, i64 %133
  %135 = getelementptr inbounds [100 x i8], [100 x i8]* %134, i64 0, i64 0
  %136 = getelementptr inbounds [100 x i8], [100 x i8]* %15, i64 0, i64 0
  %137 = call i8* @strcpy(i8* %135, i8* %136) #3
  br label %138

138:                                              ; preds = %95, %82
  br label %139

139:                                              ; preds = %138
  %140 = load i32, i32* %4, align 4
  %141 = add nsw i32 %140, 1
  store i32 %141, i32* %4, align 4
  br label %75

142:                                              ; preds = %75
  br label %143

143:                                              ; preds = %142
  %144 = load i32, i32* %3, align 4
  %145 = add nsw i32 %144, 1
  store i32 %145, i32* %3, align 4
  br label %69

146:                                              ; preds = %69
  store i32 0, i32* %3, align 4
  br label %147

147:                                              ; preds = %157, %146
  %148 = load i32, i32* %3, align 4
  %149 = load i32, i32* %8, align 4
  %150 = icmp slt i32 %148, %149
  br i1 %150, label %151, label %160

151:                                              ; preds = %147
  %152 = load i32, i32* %3, align 4
  %153 = sext i32 %152 to i64
  %154 = getelementptr inbounds [100 x [100 x i8]], [100 x [100 x i8]]* %12, i64 0, i64 %153
  %155 = getelementptr inbounds [100 x i8], [100 x i8]* %154, i64 0, i64 0
  %156 = call i32 (i8*, ...) @printf(i8* getelementptr inbounds ([4 x i8], [4 x i8]* @.str.2, i64 0, i64 0), i8* %155)
  br label %157

157:                                              ; preds = %151
  %158 = load i32, i32* %3, align 4
  %159 = add nsw i32 %158, 1
  store i32 %159, i32* %3, align 4
  br label %147

160:                                              ; preds = %147
  store i32 0, i32* %6, align 4
  store i32 0, i32* %3, align 4
  br label %161

161:                                              ; preds = %192, %160
  %162 = load i32, i32* %3, align 4
  %163 = load i32, i32* %2, align 4
  %164 = icmp slt i32 %162, %163
  br i1 %164, label %165, label %195

165:                                              ; preds = %161
  %166 = load i32, i32* %3, align 4
  %167 = sext i32 %166 to i64
  %168 = getelementptr inbounds [100 x i8], [100 x i8]* %10, i64 0, i64 %167
  %169 = load i8, i8* %168, align 1
  %170 = sext i8 %169 to i32
  %171 = icmp slt i32 %170, 60
  br i1 %171, label %172, label %191

172:                                              ; preds = %165
  %173 = load i32, i32* %3, align 4
  %174 = sext i32 %173 to i64
  %175 = getelementptr inbounds [100 x i8], [100 x i8]* %10, i64 0, i64 %174
  %176 = load i8, i8* %175, align 1
  %177 = load i32, i32* %6, align 4
  %178 = sext i32 %177 to i64
  %179 = getelementptr inbounds [100 x i8], [100 x i8]* %13, i64 0, i64 %178
  store i8 %176, i8* %179, align 1
  %180 = load i32, i32* %6, align 4
  %181 = sext i32 %180 to i64
  %182 = getelementptr inbounds [100 x [100 x i8]], [100 x [100 x i8]]* %14, i64 0, i64 %181
  %183 = getelementptr inbounds [100 x i8], [100 x i8]* %182, i64 0, i64 0
  %184 = load i32, i32* %3, align 4
  %185 = sext i32 %184 to i64
  %186 = getelementptr inbounds [100 x [100 x i8]], [100 x [100 x i8]]* %9, i64 0, i64 %185
  %187 = getelementptr inbounds [100 x i8], [100 x i8]* %186, i64 0, i64 0
  %188 = call i8* @strcpy(i8* %183, i8* %187) #3
  %189 = load i32, i32* %6, align 4
  %190 = add nsw i32 %189, 1
  store i32 %190, i32* %6, align 4
  br label %191

191:                                              ; preds = %172, %165
  br label %192

192:                                              ; preds = %191
  %193 = load i32, i32* %3, align 4
  %194 = add nsw i32 %193, 1
  store i32 %194, i32* %3, align 4
  br label %161

195:                                              ; preds = %161
  store i32 0, i32* %3, align 4
  br label %196

196:                                              ; preds = %206, %195
  %197 = load i32, i32* %3, align 4
  %198 = load i32, i32* %6, align 4
  %199 = icmp slt i32 %197, %198
  br i1 %199, label %200, label %209

200:                                              ; preds = %196
  %201 = load i32, i32* %3, align 4
  %202 = sext i32 %201 to i64
  %203 = getelementptr inbounds [100 x [100 x i8]], [100 x [100 x i8]]* %14, i64 0, i64 %202
  %204 = getelementptr inbounds [100 x i8], [100 x i8]* %203, i64 0, i64 0
  %205 = call i32 (i8*, ...) @printf(i8* getelementptr inbounds ([4 x i8], [4 x i8]* @.str.2, i64 0, i64 0), i8* %204)
  br label %206

206:                                              ; preds = %200
  %207 = load i32, i32* %3, align 4
  %208 = add nsw i32 %207, 1
  store i32 %208, i32* %3, align 4
  br label %196

209:                                              ; preds = %196
  %210 = load i32, i32* %1, align 4
  ret i32 %210
}

declare dso_local i32 @__isoc99_scanf(i8*, ...) #1

; Function Attrs: nounwind
declare dso_local i8* @strcpy(i8*, i8*) #2

declare dso_local i32 @printf(i8*, ...) #1


!llvm.module.flags = !{!0}
!llvm.ident = !{!1}

!0 = !{i32 1, !"wchar_size", i32 4}
!1 = !{!"clang version 10.0.0-4ubuntu1 "}
